; Function Attrs: mustprogress nounwind uwtable
define hidden void @_ZN2cv10HdrDecoderD0Ev(ptr noundef nonnull align 8 dereferenceable(408) %0) unnamed_addr #4 align 2 personality ptr @__gxx_personality_v0 {
  %2 = getelementptr inbounds nuw i8, ptr %0, i64 400
  %3 = load ptr, ptr %2, align 8, !tbaa !15
  %.not.i = icmp eq ptr %3, null
  br i1 %.not.i, label %6, label %4

4:                                                ; preds = %1
  %5 = tail call i32 @fclose(ptr noundef nonnull %3)
  br label %6

6:                                                ; preds = %4, %1
  %7 = getelementptr inbounds nuw i8, ptr %0, i64 368
  %8 = load ptr, ptr %7, align 8, !tbaa !57
  %9 = getelementptr inbounds nuw i8, ptr %0, i64 384
  %10 = icmp eq ptr %8, %9
  br i1 %10, label %_ZNKSt7__cxx1112basic_stringIcSt11char_traitsIcESaIcEE11_M_is_localEv.exit.thread.i.i.i, label %_ZNKSt7__cxx1112basic_stringIcSt11char_traitsIcESaIcEE11_M_is_localEv.exit.i.i.i

_ZNKSt7__cxx1112basic_stringIcSt11char_traitsIcESaIcEE11_M_is_localEv.exit.thread.i.i.i: ; preds = %6
  %11 = getelementptr inbounds nuw i8, ptr %0, i64 376
  %12 = load i64, ptr %11, align 8, !tbaa !11
  %13 = icmp ult i64 %12, 16
  tail call void @llvm.assume(i1 %13)
  br label %_ZN2cv10HdrDecoderD2Ev.exit

_ZNKSt7__cxx1112basic_stringIcSt11char_traitsIcESaIcEE11_M_is_localEv.exit.i.i.i: ; preds = %6
  tail call void @_ZdlPv(ptr noundef %8) #21
  br label %_ZN2cv10HdrDecoderD2Ev.exit

_ZN2cv10HdrDecoderD2Ev.exit:                      ; preds = %_ZNKSt7__cxx1112basic_stringIcSt11char_traitsIcESaIcEE11_M_is_localEv.exit.thread.i.i.i, %_ZNKSt7__cxx1112basic_stringIcSt11char_traitsIcESaIcEE11_M_is_localEv.exit.i.i.i
  tail call void @_ZN2cv16BaseImageDecoderD2Ev(ptr noundef nonnull align 8 dereferenceable(408) %0) #22
  tail call void @_ZdlPv(ptr noundef nonnull %0) #21
  ret void
}